target datalayout = "e-m:e-p270:32:32-p271:32:32-p272:64:64-i64:64-i128:128-f80:128-n8:16:32:64-S128"
target triple = "x86_64-pc-linux-gnu"

; Function Attrs: nounwind uwtable
define internal i32 @git_cat_file_config(ptr noundef %0, ptr noundef %1, ptr noundef %2, ptr noundef %3) #0 {
  %5 = alloca i32, align 4
  %6 = alloca ptr, align 8
  %7 = alloca ptr, align 8
  %8 = alloca ptr, align 8
  %9 = alloca ptr, align 8
  store ptr %0, ptr %6, align 8, !tbaa !11
  store ptr %1, ptr %7, align 8, !tbaa !11
  store ptr %2, ptr %8, align 8, !tbaa !62
  store ptr %3, ptr %9, align 8, !tbaa !61
  %10 = load ptr, ptr %6, align 8, !tbaa !11
  %11 = load ptr, ptr %7, align 8, !tbaa !11
  %12 = call i32 @userdiff_config(ptr noundef %10, ptr noundef %11)
  %13 = icmp slt i32 %12, 0
  br i1 %13, label %14, label %15

14:                                               ; preds = %4
  store i32 -1, ptr %5, align 4
  br label %21

15:                                               ; preds = %4
  %16 = load ptr, ptr %6, align 8, !tbaa !11
  %17 = load ptr, ptr %7, align 8, !tbaa !11
  %18 = load ptr, ptr %8, align 8, !tbaa !62
  %19 = load ptr, ptr %9, align 8, !tbaa !61
  %20 = call i32 @git_default_config(ptr noundef %16, ptr noundef %17, ptr noundef %18, ptr noundef %19)
  store i32 %20, ptr %5, align 4
  br label %21

21:                                               ; preds = %15, %14
  %22 = load i32, ptr %5, align 4
  ret i32 %22
}