; Function Attrs: nounwind uwtable
define internal i32 @git_cat_file_config(ptr noundef %0, ptr noundef %1, ptr noundef %2, ptr noundef %3) #0 {
  %5 = tail call i32 @userdiff_config(ptr noundef %0, ptr noundef %1) #14
  %6 = icmp slt i32 %5, 0
  br i1 %6, label %9, label %7

7:                                                ; preds = %4
  %8 = tail call i32 @git_default_config(ptr noundef %0, ptr noundef %1, ptr noundef %2, ptr noundef %3) #14
  br label %9

9:                                                ; preds = %4, %7
  %.0 = phi i32 [ %8, %7 ], [ -1, %4 ]
  ret i32 %.0
}